target datalayout = "e-m:e-p270:32:32-p271:32:32-p272:64:64-i64:64-i128:128-f80:128-n8:16:32:64-S128"
target triple = "x86_64-pc-linux-gnu"

%struct.ssl_st = type { i32, i16, i16, ptr, ptr, ptr, ptr, ptr, i32, i32, ptr, ptr, i32, i32, ptr, ptr, ptr, ptr, ptr, ptr, ptr, ptr, i32, i32, [32 x i8], ptr, ptr, ptr, ptr, ptr, ptr, ptr, i64, %struct.crypto_ex_data_st, ptr, i32, i32, i32, i32, i16, ptr, i32, i64, ptr, ptr, ptr, ptr, ptr, ptr, i32, i32, ptr, ptr, i8, i8, i32 }
%struct.crypto_ex_data_st = type { ptr }

; Function Attrs: nounwind uwtable
define internal i32 @ext_sct_add_clienthello(ptr noundef %0, ptr noundef %1) #0 {
  %3 = alloca i32, align 4
  %4 = alloca ptr, align 8
  %5 = alloca ptr, align 8
  store ptr %0, ptr %4, align 8, !tbaa !69
  store ptr %1, ptr %5, align 8, !tbaa !128
  %6 = load ptr, ptr %4, align 8, !tbaa !69
  %7 = getelementptr inbounds nuw %struct.ssl_st, ptr %6, i32 0, i32 54
  %8 = load i8, ptr %7, align 1
  %9 = lshr i8 %8, 3
  %10 = and i8 %9, 1
  %11 = zext i8 %10 to i32
  %12 = icmp ne i32 %11, 0
  br i1 %12, label %14, label %13

13:                                               ; preds = %2
  store i32 1, ptr %3, align 4
  br label %24

14:                                               ; preds = %2
  %15 = load ptr, ptr %5, align 8, !tbaa !128
  %16 = call i32 @CBB_add_u16(ptr noundef %15, i16 noundef zeroext 18)
  %17 = icmp ne i32 %16, 0
  br i1 %17, label %18, label %22

18:                                               ; preds = %14
  %19 = load ptr, ptr %5, align 8, !tbaa !128
  %20 = call i32 @CBB_add_u16(ptr noundef %19, i16 noundef zeroext 0)
  %21 = icmp ne i32 %20, 0
  br i1 %21, label %23, label %22

22:                                               ; preds = %18, %14
  store i32 0, ptr %3, align 4
  br label %24

23:                                               ; preds = %18
  store i32 1, ptr %3, align 4
  br label %24

24:                                               ; preds = %23, %22, %13
  %25 = load i32, ptr %3, align 4
  ret i32 %25
}