; Function Attrs: nounwind uwtable
define internal range(i32 0, 2) i32 @ext_sct_add_clienthello(ptr noundef readonly captures(none) %0, ptr noundef %1) #0 {
  %3 = getelementptr inbounds nuw i8, ptr %0, i64 385
  %4 = load i8, ptr %3, align 1
  %5 = and i8 %4, 8
  %.not = icmp eq i8 %5, 0
  br i1 %.not, label %10, label %6

6:                                                ; preds = %2
  %7 = tail call i32 @CBB_add_u16(ptr noundef %1, i16 noundef zeroext 18) #21
  %.not3 = icmp eq i32 %7, 0
  br i1 %.not3, label %10, label %8

8:                                                ; preds = %6
  %9 = tail call i32 @CBB_add_u16(ptr noundef %1, i16 noundef zeroext 0) #21
  %.not4 = icmp ne i32 %9, 0
  %spec.select = zext i1 %.not4 to i32
  br label %10

10:                                               ; preds = %8, %6, %2
  %.0 = phi i32 [ 1, %2 ], [ 0, %6 ], [ %spec.select, %8 ]
  ret i32 %.0
}